target datalayout = "e-m:e-p270:32:32-p271:32:32-p272:64:64-i64:64-i128:128-f80:128-n8:16:32:64-S128"
target triple = "x86_64-pc-linux-gnu"

%struct.Cbs2_Par_t_ = type { i32, i32, i32, i32, i32, i32, i32, i32, i32, i32, i32, i32 }
%struct.Cbs2_Man_t_ = type { %struct.Cbs2_Par_t_, ptr, %struct.Cbs2_Que_t_, %struct.Cbs2_Que_t_, %struct.Cbs2_Que_t_, ptr, ptr, %struct.Vec_Str_t_, %struct.Vec_Str_t_, %struct.Vec_Int_t_, %struct.Vec_Int_t_, %struct.Vec_Int_t_, %struct.Vec_Int_t_, %struct.Vec_Int_t_, %struct.Vec_Int_t_, %struct.Vec_Int_t_, %struct.Vec_Int_t_, i32, i32, i32, i32, i32, i32, i32, i64, i64, i64, i64, i64, [3 x i32], [2 x i32], i32 }
%struct.Cbs2_Que_t_ = type { i32, i32, i32, ptr }
%struct.Vec_Str_t_ = type { i32, i32, ptr }
%struct.Vec_Int_t_ = type { i32, i32, ptr }
%struct.Gia_Man_t_ = type { ptr, ptr, i32, i32, i32, i32, ptr, ptr, i32, i32, i32, ptr, ptr, %struct.Vec_Int_t_, %struct.Vec_Int_t_, i32, i32, i32, %struct.Vec_Int_t_, ptr, ptr, ptr, i32, i32, i32, i32, ptr, ptr, ptr, ptr, ptr, i32, i32, ptr, i32, ptr, ptr, ptr, ptr, ptr, ptr, ptr, ptr, ptr, ptr, ptr, ptr, ptr, ptr, ptr, ptr, ptr, ptr, %struct.Vec_Int_t_, %struct.Vec_Int_t_, ptr, ptr, ptr, ptr, ptr, ptr, ptr, ptr, ptr, ptr, ptr, ptr, ptr, ptr, ptr, ptr, ptr, ptr, ptr, ptr, ptr, i32, float, float, ptr, ptr, i32, ptr, ptr, ptr, ptr, ptr, ptr, ptr, ptr, ptr, ptr, ptr, ptr, ptr, ptr, ptr, i64, i64, ptr, ptr, i32, i32, i32, i32, i32, i32, i32, i32, i32, i32, i32, i32, ptr, ptr, ptr, ptr, ptr, ptr, ptr, ptr, i32, i32, i32, ptr, i32, i32, ptr, ptr, ptr, ptr, ptr, ptr, i32, i32, ptr, %struct.Vec_Int_t_, %struct.Vec_Int_t_, %struct.Vec_Int_t_, ptr, ptr, ptr, i32, i32, i32, i32, ptr, ptr, ptr, ptr, ptr }

@.str = private unnamed_addr constant [11 x i8] c"CO = %8d  \00", align 1
@.str.1 = private unnamed_addr constant [12 x i8] c"AND = %8d  \00", align 1
@.str.2 = private unnamed_addr constant [13 x i8] c"Conf = %6d  \00", align 1
@.str.3 = private unnamed_addr constant [16 x i8] c"JustMax = %5d  \00", align 1
@.str.4 = private unnamed_addr constant [2 x i8] c"\0A\00", align 1
@.str.5 = private unnamed_addr constant [50 x i8] c"Unsat calls %6d  (%6.2f %%)   Ave conf = %8.1f   \00", align 1
@.str.6 = private unnamed_addr constant [5 x i8] c"%s =\00", align 1
@.str.7 = private unnamed_addr constant [5 x i8] c"Time\00", align 1
@.str.8 = private unnamed_addr constant [22 x i8] c"%9.2f sec (%6.2f %%)\0A\00", align 1
@.str.9 = private unnamed_addr constant [50 x i8] c"Sat   calls %6d  (%6.2f %%)   Ave conf = %8.1f   \00", align 1
@.str.10 = private unnamed_addr constant [50 x i8] c"Undef calls %6d  (%6.2f %%)   Ave conf = %8.1f   \00", align 1
@.str.11 = private unnamed_addr constant [11 x i8] c"Total time\00", align 1
@.str.12 = private unnamed_addr constant [11 x i8] c"%9.2f sec\0A\00", align 1

; Function Attrs: inlinehint nounwind uwtable
define internal i32 @Vec_IntSize(ptr noundef %0) #5 {
  %2 = alloca ptr, align 8
  store ptr %0, ptr %2, align 8, !tbaa !42
  %3 = load ptr, ptr %2, align 8, !tbaa !42
  %4 = getelementptr inbounds nuw %struct.Vec_Int_t_, ptr %3, i32 0, i32 1
  %5 = load i32, ptr %4, align 4, !tbaa !43
  ret i32 %5
}

; Function Attrs: inlinehint nounwind uwtable
define internal i32 @Gia_ManAndNum(ptr noundef %0) #5 {
  %2 = alloca ptr, align 8
  store ptr %0, ptr %2, align 8, !tbaa !30
  %3 = load ptr, ptr %2, align 8, !tbaa !30
  %4 = getelementptr inbounds nuw %struct.Gia_Man_t_, ptr %3, i32 0, i32 4
  %5 = load i32, ptr %4, align 8, !tbaa !53
  %6 = load ptr, ptr %2, align 8, !tbaa !30
  %7 = getelementptr inbounds nuw %struct.Gia_Man_t_, ptr %6, i32 0, i32 11
  %8 = load ptr, ptr %7, align 8, !tbaa !123
  %9 = call i32 @Vec_IntSize(ptr noundef %8)
  %10 = sub nsw i32 %5, %9
  %11 = load ptr, ptr %2, align 8, !tbaa !30
  %12 = getelementptr inbounds nuw %struct.Gia_Man_t_, ptr %11, i32 0, i32 12
  %13 = load ptr, ptr %12, align 8, !tbaa !122
  %14 = call i32 @Vec_IntSize(ptr noundef %13)
  %15 = sub nsw i32 %10, %14
  %16 = sub nsw i32 %15, 1
  ret i32 %16
}

; Function Attrs: inlinehint nounwind uwtable
define internal i32 @Gia_ManCoNum(ptr noundef %0) #5 {
  %2 = alloca ptr, align 8
  store ptr %0, ptr %2, align 8, !tbaa !30
  %3 = load ptr, ptr %2, align 8, !tbaa !30
  %4 = getelementptr inbounds nuw %struct.Gia_Man_t_, ptr %3, i32 0, i32 12
  %5 = load ptr, ptr %4, align 8, !tbaa !122
  %6 = call i32 @Vec_IntSize(ptr noundef %5)
  ret i32 %6
}

; Function Attrs: nounwind uwtable
define void @Cbs2_ManSatPrintStats(ptr noundef %0) #0 {
  %2 = alloca ptr, align 8
  store ptr %0, ptr %2, align 8, !tbaa !17
  %3 = load ptr, ptr %2, align 8, !tbaa !17
  %4 = getelementptr inbounds nuw %struct.Cbs2_Man_t_, ptr %3, i32 0, i32 1
  %5 = load ptr, ptr %4, align 8, !tbaa !41
  %6 = call i32 @Gia_ManCoNum(ptr noundef %5)
  %7 = call i32 (ptr, ...) @printf(ptr noundef @.str, i32 noundef %6)
  %8 = load ptr, ptr %2, align 8, !tbaa !17
  %9 = getelementptr inbounds nuw %struct.Cbs2_Man_t_, ptr %8, i32 0, i32 1
  %10 = load ptr, ptr %9, align 8, !tbaa !41
  %11 = call i32 @Gia_ManAndNum(ptr noundef %10)
  %12 = call i32 (ptr, ...) @printf(ptr noundef @.str.1, i32 noundef %11)
  %13 = load ptr, ptr %2, align 8, !tbaa !17
  %14 = getelementptr inbounds nuw %struct.Cbs2_Man_t_, ptr %13, i32 0, i32 0
  %15 = getelementptr inbounds nuw %struct.Cbs2_Par_t_, ptr %14, i32 0, i32 0
  %16 = load i32, ptr %15, align 8, !tbaa !20
  %17 = call i32 (ptr, ...) @printf(ptr noundef @.str.2, i32 noundef %16)
  %18 = load ptr, ptr %2, align 8, !tbaa !17
  %19 = getelementptr inbounds nuw %struct.Cbs2_Man_t_, ptr %18, i32 0, i32 0
  %20 = getelementptr inbounds nuw %struct.Cbs2_Par_t_, ptr %19, i32 0, i32 1
  %21 = load i32, ptr %20, align 4, !tbaa !96
  %22 = call i32 (ptr, ...) @printf(ptr noundef @.str.3, i32 noundef %21)
  %23 = call i32 (ptr, ...) @printf(ptr noundef @.str.4)
  %24 = load ptr, ptr %2, align 8, !tbaa !17
  %25 = getelementptr inbounds nuw %struct.Cbs2_Man_t_, ptr %24, i32 0, i32 17
  %26 = load i32, ptr %25, align 8, !tbaa !111
  %27 = load ptr, ptr %2, align 8, !tbaa !17
  %28 = getelementptr inbounds nuw %struct.Cbs2_Man_t_, ptr %27, i32 0, i32 20
  %29 = load i32, ptr %28, align 4, !tbaa !112
  %30 = icmp ne i32 %29, 0
  br i1 %30, label %31, label %42

31:                                               ; preds = %1
  %32 = load ptr, ptr %2, align 8, !tbaa !17
  %33 = getelementptr inbounds nuw %struct.Cbs2_Man_t_, ptr %32, i32 0, i32 17
  %34 = load i32, ptr %33, align 8, !tbaa !111
  %35 = sitofp i32 %34 to double
  %36 = fmul double 1.000000e+02, %35
  %37 = load ptr, ptr %2, align 8, !tbaa !17
  %38 = getelementptr inbounds nuw %struct.Cbs2_Man_t_, ptr %37, i32 0, i32 20
  %39 = load i32, ptr %38, align 4, !tbaa !112
  %40 = sitofp i32 %39 to double
  %41 = fdiv double %36, %40
  br label %43

42:                                               ; preds = %1
  br label %43

43:                                               ; preds = %42, %31
  %44 = phi double [ %41, %31 ], [ 0.000000e+00, %42 ]
  %45 = load ptr, ptr %2, align 8, !tbaa !17
  %46 = getelementptr inbounds nuw %struct.Cbs2_Man_t_, ptr %45, i32 0, i32 17
  %47 = load i32, ptr %46, align 8, !tbaa !111
  %48 = icmp ne i32 %47, 0
  br i1 %48, label %49, label %60

49:                                               ; preds = %43
  %50 = load ptr, ptr %2, align 8, !tbaa !17
  %51 = getelementptr inbounds nuw %struct.Cbs2_Man_t_, ptr %50, i32 0, i32 21
  %52 = load i32, ptr %51, align 8, !tbaa !113
  %53 = sitofp i32 %52 to double
  %54 = fmul double 1.000000e+00, %53
  %55 = load ptr, ptr %2, align 8, !tbaa !17
  %56 = getelementptr inbounds nuw %struct.Cbs2_Man_t_, ptr %55, i32 0, i32 17
  %57 = load i32, ptr %56, align 8, !tbaa !111
  %58 = sitofp i32 %57 to double
  %59 = fdiv double %54, %58
  br label %61

60:                                               ; preds = %43
  br label %61

61:                                               ; preds = %60, %49
  %62 = phi double [ %59, %49 ], [ 0.000000e+00, %60 ]
  %63 = call i32 (ptr, ...) @printf(ptr noundef @.str.5, i32 noundef %26, double noundef %44, double noundef %62)
  call void (i32, ptr, ...) @Abc_Print(i32 noundef 1, ptr noundef @.str.6, ptr noundef @.str.7)
  %64 = load ptr, ptr %2, align 8, !tbaa !17
  %65 = getelementptr inbounds nuw %struct.Cbs2_Man_t_, ptr %64, i32 0, i32 25
  %66 = load i64, ptr %65, align 8, !tbaa !114
  %67 = sitofp i64 %66 to double
  %68 = fmul double 1.000000e+00, %67
  %69 = fdiv double %68, 1.000000e+06
  %70 = load ptr, ptr %2, align 8, !tbaa !17
  %71 = getelementptr inbounds nuw %struct.Cbs2_Man_t_, ptr %70, i32 0, i32 28
  %72 = load i64, ptr %71, align 8, !tbaa !115
  %73 = sitofp i64 %72 to double
  %74 = fcmp une double %73, 0.000000e+00
  br i1 %74, label %75, label %86

75:                                               ; preds = %61
  %76 = load ptr, ptr %2, align 8, !tbaa !17
  %77 = getelementptr inbounds nuw %struct.Cbs2_Man_t_, ptr %76, i32 0, i32 25
  %78 = load i64, ptr %77, align 8, !tbaa !114
  %79 = sitofp i64 %78 to double
  %80 = fmul double 1.000000e+02, %79
  %81 = load ptr, ptr %2, align 8, !tbaa !17
  %82 = getelementptr inbounds nuw %struct.Cbs2_Man_t_, ptr %81, i32 0, i32 28
  %83 = load i64, ptr %82, align 8, !tbaa !115
  %84 = sitofp i64 %83 to double
  %85 = fdiv double %80, %84
  br label %87

86:                                               ; preds = %61
  br label %87

87:                                               ; preds = %86, %75
  %88 = phi double [ %85, %75 ], [ 0.000000e+00, %86 ]
  call void (i32, ptr, ...) @Abc_Print(i32 noundef 1, ptr noundef @.str.8, double noundef %69, double noundef %88)
  %89 = load ptr, ptr %2, align 8, !tbaa !17
  %90 = getelementptr inbounds nuw %struct.Cbs2_Man_t_, ptr %89, i32 0, i32 18
  %91 = load i32, ptr %90, align 4, !tbaa !116
  %92 = load ptr, ptr %2, align 8, !tbaa !17
  %93 = getelementptr inbounds nuw %struct.Cbs2_Man_t_, ptr %92, i32 0, i32 20
  %94 = load i32, ptr %93, align 4, !tbaa !112
  %95 = icmp ne i32 %94, 0
  br i1 %95, label %96, label %107

96:                                               ; preds = %87
  %97 = load ptr, ptr %2, align 8, !tbaa !17
  %98 = getelementptr inbounds nuw %struct.Cbs2_Man_t_, ptr %97, i32 0, i32 18
  %99 = load i32, ptr %98, align 4, !tbaa !116
  %100 = sitofp i32 %99 to double
  %101 = fmul double 1.000000e+02, %100
  %102 = load ptr, ptr %2, align 8, !tbaa !17
  %103 = getelementptr inbounds nuw %struct.Cbs2_Man_t_, ptr %102, i32 0, i32 20
  %104 = load i32, ptr %103, align 4, !tbaa !112
  %105 = sitofp i32 %104 to double
  %106 = fdiv double %101, %105
  br label %108

107:                                              ; preds = %87
  br label %108

108:                                              ; preds = %107, %96
  %109 = phi double [ %106, %96 ], [ 0.000000e+00, %107 ]
  %110 = load ptr, ptr %2, align 8, !tbaa !17
  %111 = getelementptr inbounds nuw %struct.Cbs2_Man_t_, ptr %110, i32 0, i32 18
  %112 = load i32, ptr %111, align 4, !tbaa !116
  %113 = icmp ne i32 %112, 0
  br i1 %113, label %114, label %125

114:                                              ; preds = %108
  %115 = load ptr, ptr %2, align 8, !tbaa !17
  %116 = getelementptr inbounds nuw %struct.Cbs2_Man_t_, ptr %115, i32 0, i32 22
  %117 = load i32, ptr %116, align 4, !tbaa !117
  %118 = sitofp i32 %117 to double
  %119 = fmul double 1.000000e+00, %118
  %120 = load ptr, ptr %2, align 8, !tbaa !17
  %121 = getelementptr inbounds nuw %struct.Cbs2_Man_t_, ptr %120, i32 0, i32 18
  %122 = load i32, ptr %121, align 4, !tbaa !116
  %123 = sitofp i32 %122 to double
  %124 = fdiv double %119, %123
  br label %126

125:                                              ; preds = %108
  br label %126

126:                                              ; preds = %125, %114
  %127 = phi double [ %124, %114 ], [ 0.000000e+00, %125 ]
  %128 = call i32 (ptr, ...) @printf(ptr noundef @.str.9, i32 noundef %91, double noundef %109, double noundef %127)
  call void (i32, ptr, ...) @Abc_Print(i32 noundef 1, ptr noundef @.str.6, ptr noundef @.str.7)
  %129 = load ptr, ptr %2, align 8, !tbaa !17
  %130 = getelementptr inbounds nuw %struct.Cbs2_Man_t_, ptr %129, i32 0, i32 26
  %131 = load i64, ptr %130, align 8, !tbaa !118
  %132 = sitofp i64 %131 to double
  %133 = fmul double 1.000000e+00, %132
  %134 = fdiv double %133, 1.000000e+06
  %135 = load ptr, ptr %2, align 8, !tbaa !17
  %136 = getelementptr inbounds nuw %struct.Cbs2_Man_t_, ptr %135, i32 0, i32 28
  %137 = load i64, ptr %136, align 8, !tbaa !115
  %138 = sitofp i64 %137 to double
  %139 = fcmp une double %138, 0.000000e+00
  br i1 %139, label %140, label %151

140:                                              ; preds = %126
  %141 = load ptr, ptr %2, align 8, !tbaa !17
  %142 = getelementptr inbounds nuw %struct.Cbs2_Man_t_, ptr %141, i32 0, i32 26
  %143 = load i64, ptr %142, align 8, !tbaa !118
  %144 = sitofp i64 %143 to double
  %145 = fmul double 1.000000e+02, %144
  %146 = load ptr, ptr %2, align 8, !tbaa !17
  %147 = getelementptr inbounds nuw %struct.Cbs2_Man_t_, ptr %146, i32 0, i32 28
  %148 = load i64, ptr %147, align 8, !tbaa !115
  %149 = sitofp i64 %148 to double
  %150 = fdiv double %145, %149
  br label %152

151:                                              ; preds = %126
  br label %152

152:                                              ; preds = %151, %140
  %153 = phi double [ %150, %140 ], [ 0.000000e+00, %151 ]
  call void (i32, ptr, ...) @Abc_Print(i32 noundef 1, ptr noundef @.str.8, double noundef %134, double noundef %153)
  %154 = load ptr, ptr %2, align 8, !tbaa !17
  %155 = getelementptr inbounds nuw %struct.Cbs2_Man_t_, ptr %154, i32 0, i32 19
  %156 = load i32, ptr %155, align 8, !tbaa !119
  %157 = load ptr, ptr %2, align 8, !tbaa !17
  %158 = getelementptr inbounds nuw %struct.Cbs2_Man_t_, ptr %157, i32 0, i32 20
  %159 = load i32, ptr %158, align 4, !tbaa !112
  %160 = icmp ne i32 %159, 0
  br i1 %160, label %161, label %172

161:                                              ; preds = %152
  %162 = load ptr, ptr %2, align 8, !tbaa !17
  %163 = getelementptr inbounds nuw %struct.Cbs2_Man_t_, ptr %162, i32 0, i32 19
  %164 = load i32, ptr %163, align 8, !tbaa !119
  %165 = sitofp i32 %164 to double
  %166 = fmul double 1.000000e+02, %165
  %167 = load ptr, ptr %2, align 8, !tbaa !17
  %168 = getelementptr inbounds nuw %struct.Cbs2_Man_t_, ptr %167, i32 0, i32 20
  %169 = load i32, ptr %168, align 4, !tbaa !112
  %170 = sitofp i32 %169 to double
  %171 = fdiv double %166, %170
  br label %173

172:                                              ; preds = %152
  br label %173

173:                                              ; preds = %172, %161
  %174 = phi double [ %171, %161 ], [ 0.000000e+00, %172 ]
  %175 = load ptr, ptr %2, align 8, !tbaa !17
  %176 = getelementptr inbounds nuw %struct.Cbs2_Man_t_, ptr %175, i32 0, i32 19
  %177 = load i32, ptr %176, align 8, !tbaa !119
  %178 = icmp ne i32 %177, 0
  br i1 %178, label %179, label %190

179:                                              ; preds = %173
  %180 = load ptr, ptr %2, align 8, !tbaa !17
  %181 = getelementptr inbounds nuw %struct.Cbs2_Man_t_, ptr %180, i32 0, i32 23
  %182 = load i32, ptr %181, align 8, !tbaa !120
  %183 = sitofp i32 %182 to double
  %184 = fmul double 1.000000e+00, %183
  %185 = load ptr, ptr %2, align 8, !tbaa !17
  %186 = getelementptr inbounds nuw %struct.Cbs2_Man_t_, ptr %185, i32 0, i32 19
  %187 = load i32, ptr %186, align 8, !tbaa !119
  %188 = sitofp i32 %187 to double
  %189 = fdiv double %184, %188
  br label %191

190:                                              ; preds = %173
  br label %191

191:                                              ; preds = %190, %179
  %192 = phi double [ %189, %179 ], [ 0.000000e+00, %190 ]
  %193 = call i32 (ptr, ...) @printf(ptr noundef @.str.10, i32 noundef %156, double noundef %174, double noundef %192)
  call void (i32, ptr, ...) @Abc_Print(i32 noundef 1, ptr noundef @.str.6, ptr noundef @.str.7)
  %194 = load ptr, ptr %2, align 8, !tbaa !17
  %195 = getelementptr inbounds nuw %struct.Cbs2_Man_t_, ptr %194, i32 0, i32 27
  %196 = load i64, ptr %195, align 8, !tbaa !121
  %197 = sitofp i64 %196 to double
  %198 = fmul double 1.000000e+00, %197
  %199 = fdiv double %198, 1.000000e+06
  %200 = load ptr, ptr %2, align 8, !tbaa !17
  %201 = getelementptr inbounds nuw %struct.Cbs2_Man_t_, ptr %200, i32 0, i32 28
  %202 = load i64, ptr %201, align 8, !tbaa !115
  %203 = sitofp i64 %202 to double
  %204 = fcmp une double %203, 0.000000e+00
  br i1 %204, label %205, label %216

205:                                              ; preds = %191
  %206 = load ptr, ptr %2, align 8, !tbaa !17
  %207 = getelementptr inbounds nuw %struct.Cbs2_Man_t_, ptr %206, i32 0, i32 27
  %208 = load i64, ptr %207, align 8, !tbaa !121
  %209 = sitofp i64 %208 to double
  %210 = fmul double 1.000000e+02, %209
  %211 = load ptr, ptr %2, align 8, !tbaa !17
  %212 = getelementptr inbounds nuw %struct.Cbs2_Man_t_, ptr %211, i32 0, i32 28
  %213 = load i64, ptr %212, align 8, !tbaa !115
  %214 = sitofp i64 %213 to double
  %215 = fdiv double %210, %214
  br label %217

216:                                              ; preds = %191
  br label %217

217:                                              ; preds = %216, %205
  %218 = phi double [ %215, %205 ], [ 0.000000e+00, %216 ]
  call void (i32, ptr, ...) @Abc_Print(i32 noundef 1, ptr noundef @.str.8, double noundef %199, double noundef %218)
  call void (i32, ptr, ...) @Abc_Print(i32 noundef 1, ptr noundef @.str.6, ptr noundef @.str.11)
  %219 = load ptr, ptr %2, align 8, !tbaa !17
  %220 = getelementptr inbounds nuw %struct.Cbs2_Man_t_, ptr %219, i32 0, i32 28
  %221 = load i64, ptr %220, align 8, !tbaa !115
  %222 = sitofp i64 %221 to double
  %223 = fmul double 1.000000e+00, %222
  %224 = fdiv double %223, 1.000000e+06
  call void (i32, ptr, ...) @Abc_Print(i32 noundef 1, ptr noundef @.str.12, double noundef %224)
  ret void
}